; Function Attrs: mustprogress uwtable
define noundef i32 @_ZN6colvar8distance4initERKNSt7__cxx1112basic_stringIcSt11char_traitsIcESaIcEEE(ptr noundef nonnull align 8 dereferenceable(1648) %0, ptr noundef nonnull align 8 dereferenceable(32) %1) unnamed_addr #2 align 2 {
  %3 = tail call noundef i32 @_ZN6colvar3cvc4initERKNSt7__cxx1112basic_stringIcSt11char_traitsIcESaIcEEE(ptr noundef nonnull align 8 dereferenceable(1608) %0, ptr noundef nonnull align 8 dereferenceable(32) %1)
  %4 = tail call noundef ptr @_ZN6colvar3cvc11parse_groupERKNSt7__cxx1112basic_stringIcSt11char_traitsIcESaIcEEEPKcb(ptr noundef nonnull align 8 dereferenceable(1608) %0, ptr noundef nonnull align 8 dereferenceable(32) %1, ptr noundef nonnull @.str.2, i1 noundef zeroext false)
  %5 = getelementptr inbounds nuw i8, ptr %0, i64 1608
  store ptr %4, ptr %5, align 8, !tbaa !4
  %6 = tail call noundef ptr @_ZN6colvar3cvc11parse_groupERKNSt7__cxx1112basic_stringIcSt11char_traitsIcESaIcEEEPKcb(ptr noundef nonnull align 8 dereferenceable(1608) %0, ptr noundef nonnull align 8 dereferenceable(32) %1, ptr noundef nonnull @.str.3, i1 noundef zeroext false)
  %7 = getelementptr inbounds nuw i8, ptr %0, i64 1616
  store ptr %6, ptr %7, align 8, !tbaa !85
  %8 = load ptr, ptr %5, align 8, !tbaa !4
  %.not = icmp eq ptr %8, null
  %.not8 = icmp eq ptr %6, null
  %or.cond = or i1 %.not8, %.not
  br i1 %or.cond, label %14, label %9

9:                                                ; preds = %2
  %10 = load ptr, ptr %0, align 8, !tbaa !86
  %11 = getelementptr inbounds nuw i8, ptr %10, i64 208
  %12 = load ptr, ptr %11, align 8
  %13 = tail call noundef i32 %12(ptr noundef nonnull align 8 dereferenceable(1608) %0, ptr noundef nonnull align 8 dereferenceable(32) %1)
  br label %14

14:                                               ; preds = %2, %9
  %.pn = phi i32 [ %13, %9 ], [ 4, %2 ]
  %.0 = or i32 %.pn, %3
  ret i32 %.0
}